target datalayout = "e-m:e-p270:32:32-p271:32:32-p272:64:64-i64:64-i128:128-f80:128-n8:16:32:64-S128"
target triple = "x86_64-pc-linux-gnu"

%struct.z_stream_s = type { ptr, i32, i64, ptr, i32, i64, ptr, ptr, ptr, ptr, ptr, i32, i64, i64 }
%struct.wtap_writer = type { i32, i64, i32, i32, ptr, ptr, ptr, i32, i32, i32, ptr, %struct.z_stream_s }

@.str.22 = private unnamed_addr constant [30 x i8] c"Z_STREAM_ERROR from deflate()\00", align 1

; Function Attrs: null_pointer_is_valid sspstrong uwtable
define internal i32 @gz_comp(ptr noundef %0, i32 noundef %1) #0 {
  %3 = alloca i32, align 4
  %4 = alloca ptr, align 8
  %5 = alloca i32, align 4
  %6 = alloca i32, align 4
  %7 = alloca i64, align 8
  %8 = alloca i64, align 8
  %9 = alloca ptr, align 8
  %10 = alloca i32, align 4
  store ptr %0, ptr %4, align 8
  store i32 %1, ptr %5, align 4
  call void @llvm.lifetime.start.p0(i64 4, ptr %6) #14
  call void @llvm.lifetime.start.p0(i64 8, ptr %7) #14
  call void @llvm.lifetime.start.p0(i64 8, ptr %8) #14
  call void @llvm.lifetime.start.p0(i64 8, ptr %9) #14
  %11 = load ptr, ptr %4, align 8
  %12 = getelementptr inbounds nuw %struct.wtap_writer, ptr %11, i32 0, i32 11
  store ptr %12, ptr %9, align 8
  %13 = load ptr, ptr %4, align 8
  %14 = getelementptr inbounds nuw %struct.wtap_writer, ptr %13, i32 0, i32 2
  %15 = load i32, ptr %14, align 8
  %16 = icmp eq i32 %15, 0
  br i1 %16, label %17, label %22

17:                                               ; preds = %2
  %18 = load ptr, ptr %4, align 8
  %19 = call i32 @gz_init(ptr noundef %18)
  %20 = icmp eq i32 %19, -1
  br i1 %20, label %21, label %22

21:                                               ; preds = %17
  store i32 -1, ptr %3, align 4
  store i32 1, ptr %10, align 4
  br label %129

22:                                               ; preds = %17, %2
  store i32 0, ptr %6, align 4
  br label %23

23:                                               ; preds = %119, %22
  %24 = load ptr, ptr %9, align 8
  %25 = getelementptr inbounds nuw %struct.z_stream_s, ptr %24, i32 0, i32 4
  %26 = load i32, ptr %25, align 8
  %27 = icmp eq i32 %26, 0
  br i1 %27, label %37, label %28

28:                                               ; preds = %23
  %29 = load i32, ptr %5, align 4
  %30 = icmp ne i32 %29, 0
  br i1 %30, label %31, label %97

31:                                               ; preds = %28
  %32 = load i32, ptr %5, align 4
  %33 = icmp ne i32 %32, 4
  br i1 %33, label %37, label %34

34:                                               ; preds = %31
  %35 = load i32, ptr %6, align 4
  %36 = icmp eq i32 %35, 1
  br i1 %36, label %37, label %97

37:                                               ; preds = %34, %31, %23
  %38 = load ptr, ptr %9, align 8
  %39 = getelementptr inbounds nuw %struct.z_stream_s, ptr %38, i32 0, i32 3
  %40 = load ptr, ptr %39, align 8
  %41 = load ptr, ptr %4, align 8
  %42 = getelementptr inbounds nuw %struct.wtap_writer, ptr %41, i32 0, i32 6
  %43 = load ptr, ptr %42, align 8
  %44 = ptrtoint ptr %40 to i64
  %45 = ptrtoint ptr %43 to i64
  %46 = sub i64 %44, %45
  store i64 %46, ptr %8, align 8
  %47 = load i64, ptr %8, align 8
  %48 = icmp ne i64 %47, 0
  br i1 %48, label %49, label %75

49:                                               ; preds = %37
  %50 = load ptr, ptr %4, align 8
  %51 = getelementptr inbounds nuw %struct.wtap_writer, ptr %50, i32 0, i32 0
  %52 = load i32, ptr %51, align 8
  %53 = load ptr, ptr %4, align 8
  %54 = getelementptr inbounds nuw %struct.wtap_writer, ptr %53, i32 0, i32 6
  %55 = load ptr, ptr %54, align 8
  %56 = load i64, ptr %8, align 8
  %57 = trunc i64 %56 to i32
  %58 = zext i32 %57 to i64
  %59 = call i64 @write(i32 noundef %52, ptr noundef %55, i64 noundef %58)
  store i64 %59, ptr %7, align 8
  %60 = load i64, ptr %7, align 8
  %61 = icmp slt i64 %60, 0
  br i1 %61, label %62, label %67

62:                                               ; preds = %49
  %63 = call ptr @__errno_location() #17
  %64 = load i32, ptr %63, align 4
  %65 = load ptr, ptr %4, align 8
  %66 = getelementptr inbounds nuw %struct.wtap_writer, ptr %65, i32 0, i32 9
  store i32 %64, ptr %66, align 8
  store i32 -1, ptr %3, align 4
  store i32 1, ptr %10, align 4
  br label %129

67:                                               ; preds = %49
  %68 = load i64, ptr %7, align 8
  %69 = load i64, ptr %8, align 8
  %70 = icmp ne i64 %68, %69
  br i1 %70, label %71, label %74

71:                                               ; preds = %67
  %72 = load ptr, ptr %4, align 8
  %73 = getelementptr inbounds nuw %struct.wtap_writer, ptr %72, i32 0, i32 9
  store i32 -14, ptr %73, align 8
  store i32 -1, ptr %3, align 4
  store i32 1, ptr %10, align 4
  br label %129

74:                                               ; preds = %67
  br label %75

75:                                               ; preds = %74, %37
  %76 = load ptr, ptr %9, align 8
  %77 = getelementptr inbounds nuw %struct.z_stream_s, ptr %76, i32 0, i32 4
  %78 = load i32, ptr %77, align 8
  %79 = icmp eq i32 %78, 0
  br i1 %79, label %80, label %91

80:                                               ; preds = %75
  %81 = load ptr, ptr %4, align 8
  %82 = getelementptr inbounds nuw %struct.wtap_writer, ptr %81, i32 0, i32 2
  %83 = load i32, ptr %82, align 8
  %84 = load ptr, ptr %9, align 8
  %85 = getelementptr inbounds nuw %struct.z_stream_s, ptr %84, i32 0, i32 4
  store i32 %83, ptr %85, align 8
  %86 = load ptr, ptr %4, align 8
  %87 = getelementptr inbounds nuw %struct.wtap_writer, ptr %86, i32 0, i32 5
  %88 = load ptr, ptr %87, align 8
  %89 = load ptr, ptr %9, align 8
  %90 = getelementptr inbounds nuw %struct.z_stream_s, ptr %89, i32 0, i32 3
  store ptr %88, ptr %90, align 8
  br label %91

91:                                               ; preds = %80, %75
  %92 = load ptr, ptr %9, align 8
  %93 = getelementptr inbounds nuw %struct.z_stream_s, ptr %92, i32 0, i32 3
  %94 = load ptr, ptr %93, align 8
  %95 = load ptr, ptr %4, align 8
  %96 = getelementptr inbounds nuw %struct.wtap_writer, ptr %95, i32 0, i32 6
  store ptr %94, ptr %96, align 8
  br label %97

97:                                               ; preds = %91, %34, %28
  %98 = load ptr, ptr %9, align 8
  %99 = getelementptr inbounds nuw %struct.z_stream_s, ptr %98, i32 0, i32 4
  %100 = load i32, ptr %99, align 8
  %101 = zext i32 %100 to i64
  store i64 %101, ptr %8, align 8
  %102 = load ptr, ptr %9, align 8
  %103 = load i32, ptr %5, align 4
  %104 = call i32 @deflate(ptr noundef %102, i32 noundef %103)
  store i32 %104, ptr %6, align 4
  %105 = load i32, ptr %6, align 4
  %106 = icmp eq i32 %105, -2
  br i1 %106, label %107, label %112

107:                                              ; preds = %97
  %108 = load ptr, ptr %4, align 8
  %109 = getelementptr inbounds nuw %struct.wtap_writer, ptr %108, i32 0, i32 9
  store i32 -21, ptr %109, align 8
  %110 = load ptr, ptr %4, align 8
  %111 = getelementptr inbounds nuw %struct.wtap_writer, ptr %110, i32 0, i32 10
  store ptr @.str.22, ptr %111, align 8
  store i32 -1, ptr %3, align 4
  store i32 1, ptr %10, align 4
  br label %129

112:                                              ; preds = %97
  %113 = load ptr, ptr %9, align 8
  %114 = getelementptr inbounds nuw %struct.z_stream_s, ptr %113, i32 0, i32 4
  %115 = load i32, ptr %114, align 8
  %116 = zext i32 %115 to i64
  %117 = load i64, ptr %8, align 8
  %118 = sub i64 %117, %116
  store i64 %118, ptr %8, align 8
  br label %119

119:                                              ; preds = %112
  %120 = load i64, ptr %8, align 8
  %121 = icmp ne i64 %120, 0
  br i1 %121, label %23, label %122, !llvm.loop !22

122:                                              ; preds = %119
  %123 = load i32, ptr %5, align 4
  %124 = icmp eq i32 %123, 4
  br i1 %124, label %125, label %128

125:                                              ; preds = %122
  %126 = load ptr, ptr %9, align 8
  %127 = call i32 @deflateReset(ptr noundef %126)
  br label %128

128:                                              ; preds = %125, %122
  store i32 0, ptr %3, align 4
  store i32 1, ptr %10, align 4
  br label %129

129:                                              ; preds = %128, %107, %71, %62, %21
  call void @llvm.lifetime.end.p0(i64 8, ptr %9) #14
  call void @llvm.lifetime.end.p0(i64 8, ptr %8) #14
  call void @llvm.lifetime.end.p0(i64 8, ptr %7) #14
  call void @llvm.lifetime.end.p0(i64 4, ptr %6) #14
  %130 = load i32, ptr %3, align 4
  ret i32 %130
}