; Function Attrs: null_pointer_is_valid sspstrong uwtable
define internal fastcc range(i32 -1, 1) i32 @gz_comp(ptr noundef %0, i32 noundef range(i32 0, 5) %1) unnamed_addr #0 {
  %3 = getelementptr inbounds nuw i8, ptr %0, i64 72
  %4 = getelementptr inbounds nuw i8, ptr %0, i64 16
  %5 = load i32, ptr %4, align 8
  %6 = icmp eq i32 %5, 0
  br i1 %6, label %7, label %10

7:                                                ; preds = %2
  %8 = tail call fastcc i32 @gz_init(ptr noundef %0)
  %9 = icmp eq i32 %8, -1
  br i1 %9, label %105, label %10

10:                                               ; preds = %7, %2
  %11 = getelementptr inbounds nuw i8, ptr %0, i64 104
  %12 = getelementptr inbounds nuw i8, ptr %0, i64 96
  %13 = getelementptr inbounds nuw i8, ptr %0, i64 40
  %14 = getelementptr inbounds nuw i8, ptr %0, i64 32
  switch i32 %1, label %.split.split.us [
    i32 0, label %.split.us.preheader
    i32 4, label %.split.split.preheader
  ]

.split.split.preheader:                           ; preds = %10
  %.pre = load i32, ptr %11, align 8
  br label %.split.split

.split.us.preheader:                              ; preds = %10
  %.pre68 = load i32, ptr %11, align 8
  br label %.split.us

.split.us:                                        ; preds = %.split.us.preheader, %40
  %15 = phi i32 [ %.pre68, %.split.us.preheader ], [ %41, %40 ]
  %16 = icmp eq i32 %15, 0
  br i1 %16, label %17, label %36

17:                                               ; preds = %.split.us
  %18 = load ptr, ptr %12, align 8
  %19 = load ptr, ptr %13, align 8
  %20 = ptrtoint ptr %18 to i64
  %21 = ptrtoint ptr %19 to i64
  %22 = sub i64 %20, %21
  %.not42.us = icmp eq ptr %18, %19
  br i1 %.not42.us, label %.thread, label %23

23:                                               ; preds = %17
  %24 = load i32, ptr %0, align 8
  %25 = and i64 %22, 4294967295
  %26 = tail call i64 @write(i32 noundef %24, ptr noundef %19, i64 noundef %25)
  %27 = icmp slt i64 %26, 0
  br i1 %27, label %.split46.us, label %28

28:                                               ; preds = %23
  %.not43.us = icmp eq i64 %26, %22
  br i1 %.not43.us, label %29, label %.split48.us

29:                                               ; preds = %28
  %.pre70 = load i32, ptr %11, align 8
  %30 = icmp eq i32 %.pre70, 0
  br i1 %30, label %.thread, label %._crit_edge71

._crit_edge71:                                    ; preds = %29
  %.pre72 = load ptr, ptr %12, align 8
  br label %33

.thread:                                          ; preds = %17, %29
  %31 = load i32, ptr %4, align 8
  store i32 %31, ptr %11, align 8
  %32 = load ptr, ptr %14, align 8
  store ptr %32, ptr %12, align 8
  br label %33

33:                                               ; preds = %._crit_edge71, %.thread
  %34 = phi i32 [ %.pre70, %._crit_edge71 ], [ %31, %.thread ]
  %35 = phi ptr [ %.pre72, %._crit_edge71 ], [ %32, %.thread ]
  store ptr %35, ptr %13, align 8
  br label %36

36:                                               ; preds = %.split.us, %33
  %37 = phi i32 [ %15, %.split.us ], [ %34, %33 ]
  %38 = tail call i32 @deflate(ptr noundef nonnull %3, i32 noundef 0)
  %39 = icmp eq i32 %38, -2
  br i1 %39, label %.split50.us, label %40

40:                                               ; preds = %36
  %41 = load i32, ptr %11, align 8
  %.not44.us = icmp eq i32 %37, %41
  br i1 %.not44.us, label %.split52.us, label %.split.us, !llvm.loop !41

.split.split.us:                                  ; preds = %10, %64
  %42 = load ptr, ptr %12, align 8
  %43 = load ptr, ptr %13, align 8
  %44 = ptrtoint ptr %42 to i64
  %45 = ptrtoint ptr %43 to i64
  %46 = sub i64 %44, %45
  %.not42.us54 = icmp eq ptr %42, %43
  br i1 %.not42.us54, label %53, label %47

47:                                               ; preds = %.split.split.us
  %48 = load i32, ptr %0, align 8
  %49 = and i64 %46, 4294967295
  %50 = tail call i64 @write(i32 noundef %48, ptr noundef %43, i64 noundef %49)
  %51 = icmp slt i64 %50, 0
  br i1 %51, label %.split46.us, label %52

52:                                               ; preds = %47
  %.not43.us55 = icmp eq i64 %50, %46
  br i1 %.not43.us55, label %53, label %.split48.us

53:                                               ; preds = %52, %.split.split.us
  %54 = load i32, ptr %11, align 8
  %55 = icmp eq i32 %54, 0
  br i1 %55, label %56, label %._crit_edge73

._crit_edge73:                                    ; preds = %53
  %.pre74 = load ptr, ptr %12, align 8
  br label %59

56:                                               ; preds = %53
  %57 = load i32, ptr %4, align 8
  store i32 %57, ptr %11, align 8
  %58 = load ptr, ptr %14, align 8
  store ptr %58, ptr %12, align 8
  br label %59

59:                                               ; preds = %._crit_edge73, %56
  %60 = phi i32 [ %54, %._crit_edge73 ], [ %57, %56 ]
  %61 = phi ptr [ %.pre74, %._crit_edge73 ], [ %58, %56 ]
  store ptr %61, ptr %13, align 8
  %62 = tail call i32 @deflate(ptr noundef nonnull %3, i32 noundef %1)
  %63 = icmp eq i32 %62, -2
  br i1 %63, label %.split50.us, label %64

64:                                               ; preds = %59
  %65 = load i32, ptr %11, align 8
  %.not44.us56 = icmp eq i32 %60, %65
  br i1 %.not44.us56, label %.split52.us, label %.split.split.us, !llvm.loop !41

.split.split:                                     ; preds = %.split.split.preheader, %100
  %66 = phi i32 [ %101, %100 ], [ %.pre, %.split.split.preheader ]
  %.037 = phi i32 [ %96, %100 ], [ 0, %.split.split.preheader ]
  %67 = icmp eq i32 %66, 0
  %68 = icmp eq i32 %.037, 1
  %or.cond = or i1 %67, %68
  br i1 %or.cond, label %69, label %94

69:                                               ; preds = %.split.split
  %70 = load ptr, ptr %12, align 8
  %71 = load ptr, ptr %13, align 8
  %72 = ptrtoint ptr %70 to i64
  %73 = ptrtoint ptr %71 to i64
  %74 = sub i64 %72, %73
  %.not42 = icmp eq ptr %70, %71
  br i1 %.not42, label %85, label %75

75:                                               ; preds = %69
  %76 = load i32, ptr %0, align 8
  %77 = and i64 %74, 4294967295
  %78 = tail call i64 @write(i32 noundef %76, ptr noundef %71, i64 noundef %77)
  %79 = icmp slt i64 %78, 0
  br i1 %79, label %.split46.us, label %83

.split46.us:                                      ; preds = %75, %23, %47
  %80 = tail call ptr @__errno_location() #23
  %81 = load i32, ptr %80, align 4
  %82 = getelementptr inbounds nuw i8, ptr %0, i64 56
  store i32 %81, ptr %82, align 8
  br label %105

83:                                               ; preds = %75
  %.not43 = icmp eq i64 %78, %74
  br i1 %.not43, label %._crit_edge, label %.split48.us

._crit_edge:                                      ; preds = %83
  %.pre65 = load i32, ptr %11, align 8
  br label %85

.split48.us:                                      ; preds = %83, %28, %52
  %84 = getelementptr inbounds nuw i8, ptr %0, i64 56
  store i32 -14, ptr %84, align 8
  br label %105

85:                                               ; preds = %._crit_edge, %69
  %86 = phi i32 [ %.pre65, %._crit_edge ], [ %66, %69 ]
  %87 = icmp eq i32 %86, 0
  br i1 %87, label %88, label %._crit_edge66

._crit_edge66:                                    ; preds = %85
  %.pre67 = load ptr, ptr %12, align 8
  br label %91

88:                                               ; preds = %85
  %89 = load i32, ptr %4, align 8
  store i32 %89, ptr %11, align 8
  %90 = load ptr, ptr %14, align 8
  store ptr %90, ptr %12, align 8
  br label %91

91:                                               ; preds = %._crit_edge66, %88
  %92 = phi i32 [ %86, %._crit_edge66 ], [ %89, %88 ]
  %93 = phi ptr [ %.pre67, %._crit_edge66 ], [ %90, %88 ]
  store ptr %93, ptr %13, align 8
  br label %94

94:                                               ; preds = %.split.split, %91
  %95 = phi i32 [ %66, %.split.split ], [ %92, %91 ]
  %96 = tail call i32 @deflate(ptr noundef nonnull %3, i32 noundef 4)
  %97 = icmp eq i32 %96, -2
  br i1 %97, label %.split50.us, label %100

.split50.us:                                      ; preds = %94, %36, %59
  %98 = getelementptr inbounds nuw i8, ptr %0, i64 56
  store i32 -21, ptr %98, align 8
  %99 = getelementptr inbounds nuw i8, ptr %0, i64 64
  store ptr @.str.22, ptr %99, align 8
  br label %105

100:                                              ; preds = %94
  %101 = load i32, ptr %11, align 8
  %.not44 = icmp eq i32 %95, %101
  br i1 %.not44, label %.split52.us, label %.split.split, !llvm.loop !41

.split52.us:                                      ; preds = %100, %40, %64
  %102 = icmp eq i32 %1, 4
  br i1 %102, label %103, label %105

103:                                              ; preds = %.split52.us
  %104 = tail call i32 @deflateReset(ptr noundef nonnull %3)
  br label %105

105:                                              ; preds = %.split52.us, %103, %7, %.split50.us, %.split48.us, %.split46.us
  %.0 = phi i32 [ -1, %.split46.us ], [ -1, %.split48.us ], [ -1, %.split50.us ], [ -1, %7 ], [ 0, %103 ], [ 0, %.split52.us ]
  ret i32 %.0
}